; Function Attrs: mustprogress nofree norecurse nosync nounwind willreturn memory(argmem: read) uwtable
define noundef zeroext i1 @_ZNK32pxrInternal_v0_24__pxrReserved__7GfPlane27IntersectsPositiveHalfSpaceERKNS_9GfRange3dE(ptr nocapture noundef nonnull readonly align 8 dereferenceable(32) %0, ptr nocapture noundef nonnull readonly align 8 dereferenceable(48) %1) local_unnamed_addr #5 align 2 {
  %3 = load double, ptr %1, align 8
  %4 = getelementptr inbounds nuw i8, ptr %1, i64 24
  %5 = load double, ptr %4, align 8
  %6 = fcmp ogt double %3, %5
  br i1 %6, label %_ZNK32pxrInternal_v0_24__pxrReserved__9GfRange3d7IsEmptyEv.exit.thread, label %7

7:                                                ; preds = %2
  %8 = getelementptr inbounds i8, ptr %1, i64 8
  %9 = load double, ptr %8, align 8
  %10 = getelementptr inbounds i8, ptr %1, i64 32
  %11 = load double, ptr %10, align 8
  %12 = fcmp ogt double %9, %11
  br i1 %12, label %_ZNK32pxrInternal_v0_24__pxrReserved__9GfRange3d7IsEmptyEv.exit.thread, label %_ZNK32pxrInternal_v0_24__pxrReserved__9GfRange3d7IsEmptyEv.exit

_ZNK32pxrInternal_v0_24__pxrReserved__9GfRange3d7IsEmptyEv.exit: ; preds = %7
  %13 = getelementptr inbounds i8, ptr %1, i64 16
  %14 = load double, ptr %13, align 8
  %15 = getelementptr inbounds i8, ptr %1, i64 40
  %16 = load double, ptr %15, align 8
  %17 = fcmp ogt double %14, %16
  br i1 %17, label %_ZNK32pxrInternal_v0_24__pxrReserved__9GfRange3d7IsEmptyEv.exit.thread, label %.preheader

.preheader:                                       ; preds = %_ZNK32pxrInternal_v0_24__pxrReserved__9GfRange3d7IsEmptyEv.exit, %.preheader
  %indvars.iv = phi i64 [ %indvars.iv.next, %.preheader ], [ 0, %_ZNK32pxrInternal_v0_24__pxrReserved__9GfRange3d7IsEmptyEv.exit ]
  %.01415 = phi double [ %24, %.preheader ], [ 0.000000e+00, %_ZNK32pxrInternal_v0_24__pxrReserved__9GfRange3d7IsEmptyEv.exit ]
  %18 = getelementptr inbounds [3 x double], ptr %0, i64 0, i64 %indvars.iv
  %19 = load double, ptr %18, align 8
  %20 = fcmp ult double %19, 0.000000e+00
  %21 = getelementptr inbounds [3 x double], ptr %4, i64 0, i64 %indvars.iv
  %22 = getelementptr inbounds [3 x double], ptr %1, i64 0, i64 %indvars.iv
  %.in = select i1 %20, ptr %22, ptr %21
  %23 = load double, ptr %.in, align 8
  %24 = tail call double @llvm.fmuladd.f64(double %19, double %23, double %.01415)
  %indvars.iv.next = add nuw nsw i64 %indvars.iv, 1
  %exitcond.not = icmp eq i64 %indvars.iv.next, 3
  br i1 %exitcond.not, label %25, label %.preheader, !llvm.loop !19

25:                                               ; preds = %.preheader
  %26 = getelementptr inbounds nuw i8, ptr %0, i64 24
  %27 = load double, ptr %26, align 8
  %28 = fcmp oge double %24, %27
  br label %_ZNK32pxrInternal_v0_24__pxrReserved__9GfRange3d7IsEmptyEv.exit.thread

_ZNK32pxrInternal_v0_24__pxrReserved__9GfRange3d7IsEmptyEv.exit.thread: ; preds = %2, %7, %_ZNK32pxrInternal_v0_24__pxrReserved__9GfRange3d7IsEmptyEv.exit, %25
  %.0 = phi i1 [ %28, %25 ], [ false, %_ZNK32pxrInternal_v0_24__pxrReserved__9GfRange3d7IsEmptyEv.exit ], [ false, %7 ], [ false, %2 ]
  ret i1 %.0
}